target datalayout = "e-m:e-p270:32:32-p271:32:32-p272:64:64-i64:64-i128:128-f80:128-n8:16:32:64-S128"
target triple = "x86_64-pc-linux-gnu"

%struct.quic_pkt_hdr_st = type { i32, i32, %struct.quic_conn_id_st, %struct.quic_conn_id_st, [4 x i8], ptr, i64, i64, ptr }
%struct.quic_conn_id_st = type { i8, [20 x i8] }
%struct.wpacket_st = type { ptr, ptr, i64, i64, i64, ptr, i8 }

@.str.3 = private unnamed_addr constant [36 x i8] c"../openssl/ssl/quic/quic_wire_pkt.c\00", align 1
@__func__.ossl_quic_calculate_retry_integrity_tag = private unnamed_addr constant [40 x i8] c"ossl_quic_calculate_retry_integrity_tag\00", align 1
@.str.4 = private unnamed_addr constant [12 x i8] c"AES-128-GCM\00", align 1
@retry_integrity_key = internal constant [16 x i8] c"\BE\0Ci\0B\9FfWZ\1DvkT\E3h\C8N", align 16
@retry_integrity_nonce = internal constant [12 x i8] c"F\15\99\D3]c+\F2#\98%\BB", align 1

; Function Attrs: nounwind uwtable
define i32 @ossl_quic_calculate_retry_integrity_tag(ptr noundef %0, ptr noundef %1, ptr noundef %2, ptr noundef %3, ptr noundef %4) #0 {
  %6 = alloca ptr, align 8
  %7 = alloca ptr, align 8
  %8 = alloca ptr, align 8
  %9 = alloca ptr, align 8
  %10 = alloca ptr, align 8
  %11 = alloca ptr, align 8
  %12 = alloca ptr, align 8
  %13 = alloca i32, align 4
  %14 = alloca i32, align 4
  %15 = alloca i32, align 4
  %16 = alloca i32, align 4
  %17 = alloca %struct.wpacket_st, align 8
  %18 = alloca [128 x i8], align 16
  %19 = alloca %struct.quic_pkt_hdr_st, align 8
  %20 = alloca i64, align 8
  store ptr %0, ptr %6, align 8, !tbaa !8
  store ptr %1, ptr %7, align 8, !tbaa !10
  store ptr %2, ptr %8, align 8, !tbaa !37
  store ptr %3, ptr %9, align 8, !tbaa !63
  store ptr %4, ptr %10, align 8, !tbaa !10
  call void @llvm.lifetime.start.p0(i64 8, ptr %11) #7
  store ptr null, ptr %11, align 8, !tbaa !66
  call void @llvm.lifetime.start.p0(i64 8, ptr %12) #7
  store ptr null, ptr %12, align 8, !tbaa !67
  call void @llvm.lifetime.start.p0(i64 4, ptr %13) #7
  store i32 0, ptr %13, align 4, !tbaa !12
  call void @llvm.lifetime.start.p0(i64 4, ptr %14) #7
  store i32 0, ptr %14, align 4, !tbaa !12
  call void @llvm.lifetime.start.p0(i64 4, ptr %15) #7
  store i32 0, ptr %15, align 4, !tbaa !12
  call void @llvm.lifetime.start.p0(i64 4, ptr %16) #7
  store i32 0, ptr %16, align 4, !tbaa !12
  call void @llvm.lifetime.start.p0(i64 56, ptr %17) #7
  call void @llvm.lifetime.start.p0(i64 128, ptr %18) #7
  call void @llvm.lifetime.start.p0(i64 88, ptr %19) #7
  call void @llvm.lifetime.start.p0(i64 8, ptr %20) #7
  store i64 0, ptr %20, align 8, !tbaa !14
  %21 = load ptr, ptr %8, align 8, !tbaa !37
  %22 = load i32, ptr %21, align 8
  %23 = and i32 %22, 255
  %24 = icmp ne i32 %23, 4
  br i1 %24, label %52, label %25

25:                                               ; preds = %5
  %26 = load ptr, ptr %8, align 8, !tbaa !37
  %27 = getelementptr inbounds nuw %struct.quic_pkt_hdr_st, ptr %26, i32 0, i32 1
  %28 = load i32, ptr %27, align 4, !tbaa !44
  %29 = icmp eq i32 %28, 0
  br i1 %29, label %52, label %30

30:                                               ; preds = %25
  %31 = load ptr, ptr %8, align 8, !tbaa !37
  %32 = getelementptr inbounds nuw %struct.quic_pkt_hdr_st, ptr %31, i32 0, i32 7
  %33 = load i64, ptr %32, align 8, !tbaa !48
  %34 = icmp ult i64 %33, 16
  br i1 %34, label %52, label %35

35:                                               ; preds = %30
  %36 = load ptr, ptr %8, align 8, !tbaa !37
  %37 = getelementptr inbounds nuw %struct.quic_pkt_hdr_st, ptr %36, i32 0, i32 8
  %38 = load ptr, ptr %37, align 8, !tbaa !49
  %39 = icmp eq ptr %38, null
  br i1 %39, label %52, label %40

40:                                               ; preds = %35
  %41 = load ptr, ptr %9, align 8, !tbaa !63
  %42 = icmp eq ptr %41, null
  br i1 %42, label %52, label %43

43:                                               ; preds = %40
  %44 = load ptr, ptr %10, align 8, !tbaa !10
  %45 = icmp eq ptr %44, null
  br i1 %45, label %52, label %46

46:                                               ; preds = %43
  %47 = load ptr, ptr %9, align 8, !tbaa !63
  %48 = getelementptr inbounds nuw %struct.quic_conn_id_st, ptr %47, i32 0, i32 0
  %49 = load i8, ptr %48, align 1, !tbaa !65
  %50 = zext i8 %49 to i32
  %51 = icmp sgt i32 %50, 20
  br i1 %51, label %52, label %53

52:                                               ; preds = %46, %43, %40, %35, %30, %25, %5
  call void @ERR_new()
  call void @ERR_set_debug(ptr noundef @.str.3, i32 noundef 872, ptr noundef @__func__.ossl_quic_calculate_retry_integrity_tag)
  call void (i32, i32, ptr, ...) @ERR_set_error(i32 noundef 20, i32 noundef 524550, ptr noundef null)
  br label %139

53:                                               ; preds = %46
  %54 = load ptr, ptr %8, align 8, !tbaa !37
  call void @llvm.memcpy.p0.p0.i64(ptr align 8 %19, ptr align 8 %54, i64 88, i1 false), !tbaa.struct !68
  %55 = getelementptr inbounds nuw %struct.quic_pkt_hdr_st, ptr %19, i32 0, i32 7
  store i64 0, ptr %55, align 8, !tbaa !48
  %56 = getelementptr inbounds [128 x i8], ptr %18, i64 0, i64 0
  %57 = call i32 @WPACKET_init_static_len(ptr noundef %17, ptr noundef %56, i64 noundef 128, i64 noundef 0)
  %58 = icmp ne i32 %57, 0
  br i1 %58, label %60, label %59

59:                                               ; preds = %53
  call void @ERR_new()
  call void @ERR_set_debug(ptr noundef @.str.3, i32 noundef 886, ptr noundef @__func__.ossl_quic_calculate_retry_integrity_tag)
  call void (i32, i32, ptr, ...) @ERR_set_error(i32 noundef 20, i32 noundef 524303, ptr noundef null)
  br label %139

60:                                               ; preds = %53
  store i32 1, ptr %16, align 4, !tbaa !12
  %61 = load ptr, ptr %9, align 8, !tbaa !63
  %62 = getelementptr inbounds nuw %struct.quic_conn_id_st, ptr %61, i32 0, i32 0
  %63 = load i8, ptr %62, align 1, !tbaa !65
  %64 = zext i8 %63 to i64
  %65 = call i32 @WPACKET_put_bytes__(ptr noundef %17, i64 noundef %64, i64 noundef 1)
  %66 = icmp ne i32 %65, 0
  br i1 %66, label %67, label %77

67:                                               ; preds = %60
  %68 = load ptr, ptr %9, align 8, !tbaa !63
  %69 = getelementptr inbounds nuw %struct.quic_conn_id_st, ptr %68, i32 0, i32 1
  %70 = getelementptr inbounds [20 x i8], ptr %69, i64 0, i64 0
  %71 = load ptr, ptr %9, align 8, !tbaa !63
  %72 = getelementptr inbounds nuw %struct.quic_conn_id_st, ptr %71, i32 0, i32 0
  %73 = load i8, ptr %72, align 1, !tbaa !65
  %74 = zext i8 %73 to i64
  %75 = call i32 @WPACKET_memcpy(ptr noundef %17, ptr noundef %70, i64 noundef %74)
  %76 = icmp ne i32 %75, 0
  br i1 %76, label %78, label %77

77:                                               ; preds = %67, %60
  call void @ERR_new()
  call void @ERR_set_debug(ptr noundef @.str.3, i32 noundef 896, ptr noundef @__func__.ossl_quic_calculate_retry_integrity_tag)
  call void (i32, i32, ptr, ...) @ERR_set_error(i32 noundef 20, i32 noundef 524303, ptr noundef null)
  br label %139

78:                                               ; preds = %67
  %79 = getelementptr inbounds nuw %struct.quic_pkt_hdr_st, ptr %19, i32 0, i32 2
  %80 = getelementptr inbounds nuw %struct.quic_conn_id_st, ptr %79, i32 0, i32 0
  %81 = load i8, ptr %80, align 8, !tbaa !41
  %82 = zext i8 %81 to i64
  %83 = call i32 @ossl_quic_wire_encode_pkt_hdr(ptr noundef %17, i64 noundef %82, ptr noundef %19, ptr noundef null)
  %84 = icmp ne i32 %83, 0
  br i1 %84, label %86, label %85

85:                                               ; preds = %78
  br label %139

86:                                               ; preds = %78
  %87 = call i32 @WPACKET_get_total_written(ptr noundef %17, ptr noundef %20)
  %88 = icmp ne i32 %87, 0
  br i1 %88, label %90, label %89

89:                                               ; preds = %86
  call void @ERR_new()
  call void @ERR_set_debug(ptr noundef @.str.3, i32 noundef 906, ptr noundef @__func__.ossl_quic_calculate_retry_integrity_tag)
  call void (i32, i32, ptr, ...) @ERR_set_error(i32 noundef 20, i32 noundef 524303, ptr noundef null)
  br label %139

90:                                               ; preds = %86
  %91 = load ptr, ptr %6, align 8, !tbaa !8
  %92 = load ptr, ptr %7, align 8, !tbaa !10
  %93 = call ptr @EVP_CIPHER_fetch(ptr noundef %91, ptr noundef @.str.4, ptr noundef %92)
  store ptr %93, ptr %11, align 8, !tbaa !66
  %94 = icmp eq ptr %93, null
  br i1 %94, label %95, label %96

95:                                               ; preds = %90
  call void @ERR_new()
  call void @ERR_set_debug(ptr noundef @.str.3, i32 noundef 913, ptr noundef @__func__.ossl_quic_calculate_retry_integrity_tag)
  call void (i32, i32, ptr, ...) @ERR_set_error(i32 noundef 20, i32 noundef 524294, ptr noundef null)
  br label %139

96:                                               ; preds = %90
  %97 = call ptr @EVP_CIPHER_CTX_new()
  store ptr %97, ptr %12, align 8, !tbaa !67
  %98 = icmp eq ptr %97, null
  br i1 %98, label %99, label %100

99:                                               ; preds = %96
  call void @ERR_new()
  call void @ERR_set_debug(ptr noundef @.str.3, i32 noundef 918, ptr noundef @__func__.ossl_quic_calculate_retry_integrity_tag)
  call void (i32, i32, ptr, ...) @ERR_set_error(i32 noundef 20, i32 noundef 524294, ptr noundef null)
  br label %139

100:                                              ; preds = %96
  %101 = load ptr, ptr %12, align 8, !tbaa !67
  %102 = load ptr, ptr %11, align 8, !tbaa !66
  %103 = call i32 @EVP_CipherInit_ex(ptr noundef %101, ptr noundef %102, ptr noundef null, ptr noundef @retry_integrity_key, ptr noundef @retry_integrity_nonce, i32 noundef 1)
  %104 = icmp ne i32 %103, 0
  br i1 %104, label %106, label %105

105:                                              ; preds = %100
  call void @ERR_new()
  call void @ERR_set_debug(ptr noundef @.str.3, i32 noundef 924, ptr noundef @__func__.ossl_quic_calculate_retry_integrity_tag)
  call void (i32, i32, ptr, ...) @ERR_set_error(i32 noundef 20, i32 noundef 524294, ptr noundef null)
  br label %139

106:                                              ; preds = %100
  %107 = load ptr, ptr %12, align 8, !tbaa !67
  %108 = getelementptr inbounds [128 x i8], ptr %18, i64 0, i64 0
  %109 = load i64, ptr %20, align 8, !tbaa !14
  %110 = trunc i64 %109 to i32
  %111 = call i32 @EVP_CipherUpdate(ptr noundef %107, ptr noundef null, ptr noundef %14, ptr noundef %108, i32 noundef %110)
  %112 = icmp ne i32 %111, 1
  br i1 %112, label %113, label %114

113:                                              ; preds = %106
  call void @ERR_new()
  call void @ERR_set_debug(ptr noundef @.str.3, i32 noundef 930, ptr noundef @__func__.ossl_quic_calculate_retry_integrity_tag)
  call void (i32, i32, ptr, ...) @ERR_set_error(i32 noundef 20, i32 noundef 524294, ptr noundef null)
  br label %139

114:                                              ; preds = %106
  %115 = load ptr, ptr %12, align 8, !tbaa !67
  %116 = load ptr, ptr %8, align 8, !tbaa !37
  %117 = getelementptr inbounds nuw %struct.quic_pkt_hdr_st, ptr %116, i32 0, i32 8
  %118 = load ptr, ptr %117, align 8, !tbaa !49
  %119 = load ptr, ptr %8, align 8, !tbaa !37
  %120 = getelementptr inbounds nuw %struct.quic_pkt_hdr_st, ptr %119, i32 0, i32 7
  %121 = load i64, ptr %120, align 8, !tbaa !48
  %122 = sub i64 %121, 16
  %123 = trunc i64 %122 to i32
  %124 = call i32 @EVP_CipherUpdate(ptr noundef %115, ptr noundef null, ptr noundef %14, ptr noundef %118, i32 noundef %123)
  %125 = icmp ne i32 %124, 1
  br i1 %125, label %126, label %127

126:                                              ; preds = %114
  call void @ERR_new()
  call void @ERR_set_debug(ptr noundef @.str.3, i32 noundef 937, ptr noundef @__func__.ossl_quic_calculate_retry_integrity_tag)
  call void (i32, i32, ptr, ...) @ERR_set_error(i32 noundef 20, i32 noundef 524294, ptr noundef null)
  br label %139

127:                                              ; preds = %114
  %128 = load ptr, ptr %12, align 8, !tbaa !67
  %129 = call i32 @EVP_CipherFinal_ex(ptr noundef %128, ptr noundef null, ptr noundef %15)
  %130 = icmp ne i32 %129, 1
  br i1 %130, label %131, label %132

131:                                              ; preds = %127
  call void @ERR_new()
  call void @ERR_set_debug(ptr noundef @.str.3, i32 noundef 943, ptr noundef @__func__.ossl_quic_calculate_retry_integrity_tag)
  call void (i32, i32, ptr, ...) @ERR_set_error(i32 noundef 20, i32 noundef 524294, ptr noundef null)
  br label %139

132:                                              ; preds = %127
  %133 = load ptr, ptr %12, align 8, !tbaa !67
  %134 = load ptr, ptr %10, align 8, !tbaa !10
  %135 = call i32 @EVP_CIPHER_CTX_ctrl(ptr noundef %133, i32 noundef 16, i32 noundef 16, ptr noundef %134)
  %136 = icmp ne i32 %135, 1
  br i1 %136, label %137, label %138

137:                                              ; preds = %132
  call void @ERR_new()
  call void @ERR_set_debug(ptr noundef @.str.3, i32 noundef 950, ptr noundef @__func__.ossl_quic_calculate_retry_integrity_tag)
  call void (i32, i32, ptr, ...) @ERR_set_error(i32 noundef 20, i32 noundef 524294, ptr noundef null)
  br label %139

138:                                              ; preds = %132
  store i32 1, ptr %13, align 4, !tbaa !12
  br label %139

139:                                              ; preds = %138, %137, %131, %126, %113, %105, %99, %95, %89, %85, %77, %59, %52
  %140 = load ptr, ptr %11, align 8, !tbaa !66
  call void @EVP_CIPHER_free(ptr noundef %140)
  %141 = load ptr, ptr %12, align 8, !tbaa !67
  call void @EVP_CIPHER_CTX_free(ptr noundef %141)
  %142 = load i32, ptr %16, align 4, !tbaa !12
  %143 = icmp ne i32 %142, 0
  br i1 %143, label %144, label %146

144:                                              ; preds = %139
  %145 = call i32 @WPACKET_finish(ptr noundef %17)
  br label %146

146:                                              ; preds = %144, %139
  %147 = load i32, ptr %13, align 4, !tbaa !12
  call void @llvm.lifetime.end.p0(i64 8, ptr %20) #7
  call void @llvm.lifetime.end.p0(i64 88, ptr %19) #7
  call void @llvm.lifetime.end.p0(i64 128, ptr %18) #7
  call void @llvm.lifetime.end.p0(i64 56, ptr %17) #7
  call void @llvm.lifetime.end.p0(i64 4, ptr %16) #7
  call void @llvm.lifetime.end.p0(i64 4, ptr %15) #7
  call void @llvm.lifetime.end.p0(i64 4, ptr %14) #7
  call void @llvm.lifetime.end.p0(i64 4, ptr %13) #7
  call void @llvm.lifetime.end.p0(i64 8, ptr %12) #7
  call void @llvm.lifetime.end.p0(i64 8, ptr %11) #7
  ret i32 %147
}