; Function Attrs: nounwind uwtable
define range(i32 0, 2) i32 @ossl_quic_calculate_retry_integrity_tag(ptr noundef %0, ptr noundef %1, ptr noundef readonly captures(none) %2, ptr noundef %3, ptr noundef %4) local_unnamed_addr #0 {
  %6 = alloca i32, align 4
  %7 = alloca i32, align 4
  %8 = alloca %struct.wpacket_st, align 8
  %9 = alloca [128 x i8], align 16
  %10 = alloca %struct.quic_pkt_hdr_st, align 8
  %11 = alloca i64, align 8
  call void @llvm.lifetime.start.p0(i64 4, ptr nonnull %6) #10
  store i32 0, ptr %6, align 4, !tbaa !26
  call void @llvm.lifetime.start.p0(i64 4, ptr nonnull %7) #10
  store i32 0, ptr %7, align 4, !tbaa !26
  call void @llvm.lifetime.start.p0(i64 56, ptr nonnull %8) #10
  call void @llvm.lifetime.start.p0(i64 128, ptr nonnull %9) #10
  call void @llvm.lifetime.start.p0(i64 88, ptr nonnull %10) #10
  call void @llvm.lifetime.start.p0(i64 8, ptr nonnull %11) #10
  store i64 0, ptr %11, align 8, !tbaa !30
  %12 = load i32, ptr %2, align 8
  %13 = and i32 %12, 255
  %.not = icmp eq i32 %13, 4
  br i1 %.not, label %14, label %31

14:                                               ; preds = %5
  %15 = getelementptr inbounds nuw i8, ptr %2, i64 4
  %16 = load i32, ptr %15, align 4, !tbaa !35
  %17 = icmp eq i32 %16, 0
  br i1 %17, label %31, label %18

18:                                               ; preds = %14
  %19 = getelementptr inbounds nuw i8, ptr %2, i64 72
  %20 = load i64, ptr %19, align 8, !tbaa !37
  %21 = icmp ult i64 %20, 16
  br i1 %21, label %31, label %22

22:                                               ; preds = %18
  %23 = getelementptr inbounds nuw i8, ptr %2, i64 80
  %24 = load ptr, ptr %23, align 8, !tbaa !38
  %25 = icmp eq ptr %24, null
  %26 = icmp eq ptr %3, null
  %or.cond = or i1 %26, %25
  %27 = icmp eq ptr %4, null
  %or.cond3 = or i1 %27, %or.cond
  br i1 %or.cond3, label %31, label %28

28:                                               ; preds = %22
  %29 = load i8, ptr %3, align 1, !tbaa !47
  %30 = icmp ugt i8 %29, 20
  br i1 %30, label %31, label %32

31:                                               ; preds = %28, %22, %18, %14, %5
  tail call void @ERR_new() #10
  tail call void @ERR_set_debug(ptr noundef nonnull @.str.3, i32 noundef 872, ptr noundef nonnull @__func__.ossl_quic_calculate_retry_integrity_tag) #10
  tail call void (i32, i32, ptr, ...) @ERR_set_error(i32 noundef 20, i32 noundef 524550, ptr noundef null) #10
  br label %83

32:                                               ; preds = %28
  call void @llvm.memcpy.p0.p0.i64(ptr noundef nonnull align 8 dereferenceable(88) %10, ptr noundef nonnull align 8 dereferenceable(88) %2, i64 88, i1 false), !tbaa.struct !48
  %33 = getelementptr inbounds nuw i8, ptr %10, i64 72
  store i64 0, ptr %33, align 8, !tbaa !37
  %34 = call i32 @WPACKET_init_static_len(ptr noundef nonnull %8, ptr noundef nonnull %9, i64 noundef 128, i64 noundef 0) #10
  %.not36 = icmp eq i32 %34, 0
  br i1 %.not36, label %35, label %36

35:                                               ; preds = %32
  call void @ERR_new() #10
  call void @ERR_set_debug(ptr noundef nonnull @.str.3, i32 noundef 886, ptr noundef nonnull @__func__.ossl_quic_calculate_retry_integrity_tag) #10
  call void (i32, i32, ptr, ...) @ERR_set_error(i32 noundef 20, i32 noundef 524303, ptr noundef null) #10
  br label %83

36:                                               ; preds = %32
  %37 = load i8, ptr %3, align 1, !tbaa !47
  %38 = zext i8 %37 to i64
  %39 = call i32 @WPACKET_put_bytes__(ptr noundef nonnull %8, i64 noundef %38, i64 noundef 1) #10
  %.not37 = icmp eq i32 %39, 0
  br i1 %.not37, label %45, label %40

40:                                               ; preds = %36
  %41 = getelementptr inbounds nuw i8, ptr %3, i64 1
  %42 = load i8, ptr %3, align 1, !tbaa !47
  %43 = zext i8 %42 to i64
  %44 = call i32 @WPACKET_memcpy(ptr noundef nonnull %8, ptr noundef nonnull %41, i64 noundef %43) #10
  %.not38 = icmp eq i32 %44, 0
  br i1 %.not38, label %45, label %46

45:                                               ; preds = %40, %36
  call void @ERR_new() #10
  call void @ERR_set_debug(ptr noundef nonnull @.str.3, i32 noundef 896, ptr noundef nonnull @__func__.ossl_quic_calculate_retry_integrity_tag) #10
  call void (i32, i32, ptr, ...) @ERR_set_error(i32 noundef 20, i32 noundef 524303, ptr noundef null) #10
  br label %83

46:                                               ; preds = %40
  %47 = getelementptr inbounds nuw i8, ptr %10, i64 8
  %48 = load i8, ptr %47, align 8, !tbaa !32
  %49 = zext i8 %48 to i64
  %50 = call i32 @ossl_quic_wire_encode_pkt_hdr(ptr noundef nonnull %8, i64 noundef %49, ptr noundef nonnull %10, ptr noundef null)
  %.not39 = icmp eq i32 %50, 0
  br i1 %.not39, label %83, label %51

51:                                               ; preds = %46
  %52 = call i32 @WPACKET_get_total_written(ptr noundef nonnull %8, ptr noundef nonnull %11) #10
  %.not40 = icmp eq i32 %52, 0
  br i1 %.not40, label %53, label %54

53:                                               ; preds = %51
  call void @ERR_new() #10
  call void @ERR_set_debug(ptr noundef nonnull @.str.3, i32 noundef 906, ptr noundef nonnull @__func__.ossl_quic_calculate_retry_integrity_tag) #10
  call void (i32, i32, ptr, ...) @ERR_set_error(i32 noundef 20, i32 noundef 524303, ptr noundef null) #10
  br label %83

54:                                               ; preds = %51
  %55 = call ptr @EVP_CIPHER_fetch(ptr noundef %0, ptr noundef nonnull @.str.4, ptr noundef %1) #10
  %56 = icmp eq ptr %55, null
  br i1 %56, label %57, label %58

57:                                               ; preds = %54
  call void @ERR_new() #10
  call void @ERR_set_debug(ptr noundef nonnull @.str.3, i32 noundef 913, ptr noundef nonnull @__func__.ossl_quic_calculate_retry_integrity_tag) #10
  call void (i32, i32, ptr, ...) @ERR_set_error(i32 noundef 20, i32 noundef 524294, ptr noundef null) #10
  br label %83

58:                                               ; preds = %54
  %59 = call ptr @EVP_CIPHER_CTX_new() #10
  %60 = icmp eq ptr %59, null
  br i1 %60, label %61, label %62

61:                                               ; preds = %58
  call void @ERR_new() #10
  call void @ERR_set_debug(ptr noundef nonnull @.str.3, i32 noundef 918, ptr noundef nonnull @__func__.ossl_quic_calculate_retry_integrity_tag) #10
  call void (i32, i32, ptr, ...) @ERR_set_error(i32 noundef 20, i32 noundef 524294, ptr noundef null) #10
  br label %83

62:                                               ; preds = %58
  %63 = call i32 @EVP_CipherInit_ex(ptr noundef nonnull %59, ptr noundef nonnull %55, ptr noundef null, ptr noundef nonnull @retry_integrity_key, ptr noundef nonnull @retry_integrity_nonce, i32 noundef 1) #10
  %.not41 = icmp eq i32 %63, 0
  br i1 %.not41, label %64, label %65

64:                                               ; preds = %62
  call void @ERR_new() #10
  call void @ERR_set_debug(ptr noundef nonnull @.str.3, i32 noundef 924, ptr noundef nonnull @__func__.ossl_quic_calculate_retry_integrity_tag) #10
  call void (i32, i32, ptr, ...) @ERR_set_error(i32 noundef 20, i32 noundef 524294, ptr noundef null) #10
  br label %83

65:                                               ; preds = %62
  %66 = load i64, ptr %11, align 8, !tbaa !30
  %67 = trunc i64 %66 to i32
  %68 = call i32 @EVP_CipherUpdate(ptr noundef nonnull %59, ptr noundef null, ptr noundef nonnull %6, ptr noundef nonnull %9, i32 noundef %67) #10
  %.not42 = icmp eq i32 %68, 1
  br i1 %.not42, label %70, label %69

69:                                               ; preds = %65
  call void @ERR_new() #10
  call void @ERR_set_debug(ptr noundef nonnull @.str.3, i32 noundef 930, ptr noundef nonnull @__func__.ossl_quic_calculate_retry_integrity_tag) #10
  call void (i32, i32, ptr, ...) @ERR_set_error(i32 noundef 20, i32 noundef 524294, ptr noundef null) #10
  br label %83

70:                                               ; preds = %65
  %71 = load ptr, ptr %23, align 8, !tbaa !38
  %72 = load i64, ptr %19, align 8, !tbaa !37
  %73 = trunc i64 %72 to i32
  %74 = add i32 %73, -16
  %75 = call i32 @EVP_CipherUpdate(ptr noundef nonnull %59, ptr noundef null, ptr noundef nonnull %6, ptr noundef %71, i32 noundef %74) #10
  %.not43 = icmp eq i32 %75, 1
  br i1 %.not43, label %77, label %76

76:                                               ; preds = %70
  call void @ERR_new() #10
  call void @ERR_set_debug(ptr noundef nonnull @.str.3, i32 noundef 937, ptr noundef nonnull @__func__.ossl_quic_calculate_retry_integrity_tag) #10
  call void (i32, i32, ptr, ...) @ERR_set_error(i32 noundef 20, i32 noundef 524294, ptr noundef null) #10
  br label %83

77:                                               ; preds = %70
  %78 = call i32 @EVP_CipherFinal_ex(ptr noundef nonnull %59, ptr noundef null, ptr noundef nonnull %7) #10
  %.not44 = icmp eq i32 %78, 1
  br i1 %.not44, label %80, label %79

79:                                               ; preds = %77
  call void @ERR_new() #10
  call void @ERR_set_debug(ptr noundef nonnull @.str.3, i32 noundef 943, ptr noundef nonnull @__func__.ossl_quic_calculate_retry_integrity_tag) #10
  call void (i32, i32, ptr, ...) @ERR_set_error(i32 noundef 20, i32 noundef 524294, ptr noundef null) #10
  br label %83

80:                                               ; preds = %77
  %81 = call i32 @EVP_CIPHER_CTX_ctrl(ptr noundef nonnull %59, i32 noundef 16, i32 noundef 16, ptr noundef nonnull %4) #10
  %.not45 = icmp eq i32 %81, 1
  br i1 %.not45, label %83, label %82

82:                                               ; preds = %80
  call void @ERR_new() #10
  call void @ERR_set_debug(ptr noundef nonnull @.str.3, i32 noundef 950, ptr noundef nonnull @__func__.ossl_quic_calculate_retry_integrity_tag) #10
  call void (i32, i32, ptr, ...) @ERR_set_error(i32 noundef 20, i32 noundef 524294, ptr noundef null) #10
  br label %83

83:                                               ; preds = %80, %46, %82, %79, %76, %69, %64, %61, %57, %53, %45, %35, %31
  %.030 = phi ptr [ null, %31 ], [ null, %57 ], [ %55, %61 ], [ %55, %69 ], [ %55, %76 ], [ %55, %79 ], [ %55, %82 ], [ %55, %64 ], [ null, %53 ], [ null, %46 ], [ null, %45 ], [ null, %35 ], [ %55, %80 ]
  %.029 = phi ptr [ null, %31 ], [ null, %57 ], [ null, %61 ], [ %59, %69 ], [ %59, %76 ], [ %59, %79 ], [ %59, %82 ], [ %59, %64 ], [ null, %53 ], [ null, %46 ], [ null, %45 ], [ null, %35 ], [ %59, %80 ]
  %.028 = phi i32 [ 0, %31 ], [ 0, %57 ], [ 0, %61 ], [ 0, %69 ], [ 0, %76 ], [ 0, %79 ], [ 0, %82 ], [ 0, %64 ], [ 0, %53 ], [ 0, %46 ], [ 0, %45 ], [ 0, %35 ], [ 1, %80 ]
  %.not46 = phi i1 [ true, %31 ], [ false, %57 ], [ false, %61 ], [ false, %69 ], [ false, %76 ], [ false, %79 ], [ false, %82 ], [ false, %64 ], [ false, %53 ], [ false, %46 ], [ false, %45 ], [ true, %35 ], [ false, %80 ]
  call void @EVP_CIPHER_free(ptr noundef %.030) #10
  call void @EVP_CIPHER_CTX_free(ptr noundef %.029) #10
  br i1 %.not46, label %86, label %84

84:                                               ; preds = %83
  %85 = call i32 @WPACKET_finish(ptr noundef nonnull %8) #10
  br label %86

86:                                               ; preds = %84, %83
  call void @llvm.lifetime.end.p0(i64 8, ptr nonnull %11) #10
  call void @llvm.lifetime.end.p0(i64 88, ptr nonnull %10) #10
  call void @llvm.lifetime.end.p0(i64 128, ptr nonnull %9) #10
  call void @llvm.lifetime.end.p0(i64 56, ptr nonnull %8) #10
  call void @llvm.lifetime.end.p0(i64 4, ptr nonnull %7) #10
  call void @llvm.lifetime.end.p0(i64 4, ptr nonnull %6) #10
  ret i32 %.028
}